; Function Attrs: mustprogress nounwind uwtable
define hidden void @_ZNK23leaI_rReg_immI_peepNode4emitEP17C2_MacroAssemblerP13PhaseRegAlloc(ptr noundef nonnull align 8 dereferenceable(88) %0, ptr noundef %1, ptr noundef %2) unnamed_addr #3 align 2 {
  %4 = alloca %class.Address, align 8
  %5 = getelementptr inbounds i8, ptr %0, i64 64
  %6 = getelementptr inbounds i8, ptr %0, i64 72
  %7 = load ptr, ptr %6, align 8
  %8 = load ptr, ptr %7, align 8
  %9 = getelementptr inbounds i8, ptr %8, i64 8
  %10 = load ptr, ptr %9, align 8
  %11 = tail call noundef i32 %10(ptr noundef nonnull align 8 dereferenceable(8) %7) #23
  %12 = load ptr, ptr %5, align 8
  %13 = load ptr, ptr %12, align 8
  %14 = getelementptr inbounds i8, ptr %13, i64 32
  %15 = load ptr, ptr %14, align 8
  %16 = tail call noundef i32 %15(ptr noundef nonnull align 8 dereferenceable(8) %12, ptr noundef %2, ptr noundef nonnull %0) #23
  %or.cond.i.i = icmp ult i32 %16, 32
  %spec.select.i.i = select i1 %or.cond.i.i, i32 %16, i32 -1
  %17 = load ptr, ptr %6, align 8
  %18 = load ptr, ptr %17, align 8
  %19 = getelementptr inbounds i8, ptr %18, i64 40
  %20 = load ptr, ptr %19, align 8
  %21 = tail call noundef i32 %20(ptr noundef nonnull align 8 dereferenceable(8) %17, ptr noundef %2, ptr noundef nonnull %0, i32 noundef 1) #23
  %or.cond.i.i6 = icmp ult i32 %21, 32
  %spec.select.i.i7 = select i1 %or.cond.i.i6, i32 %21, i32 -1
  %22 = getelementptr inbounds i8, ptr %0, i64 80
  %23 = load ptr, ptr %22, align 8
  %24 = load ptr, ptr %23, align 8
  %25 = getelementptr inbounds i8, ptr %24, i64 48
  %26 = load ptr, ptr %25, align 8
  %27 = tail call noundef i64 %26(ptr noundef nonnull align 8 dereferenceable(8) %23) #23
  %28 = trunc i64 %27 to i32
  store i32 %spec.select.i.i7, ptr %4, align 8
  %29 = getelementptr inbounds i8, ptr %4, i64 4
  store i32 -1, ptr %29, align 4
  %30 = getelementptr inbounds i8, ptr %4, i64 8
  store i32 -1, ptr %30, align 8
  %31 = getelementptr inbounds i8, ptr %4, i64 12
  store i32 -1, ptr %31, align 4
  %32 = getelementptr inbounds i8, ptr %4, i64 16
  store i32 %28, ptr %32, align 8
  %33 = getelementptr inbounds i8, ptr %4, i64 20
  store i8 0, ptr %33, align 4
  %34 = getelementptr inbounds i8, ptr %4, i64 24
  store ptr getelementptr inbounds inrange(-16, 72) (i8, ptr @_ZTV10Relocation, i64 16), ptr %34, align 8
  %35 = getelementptr inbounds i8, ptr %4, i64 32
  store ptr null, ptr %35, align 8
  %36 = getelementptr inbounds i8, ptr %4, i64 40
  store i32 0, ptr %36, align 8
  call void @_ZN9Assembler4lealE8Register7Address(ptr noundef nonnull align 8 dereferenceable(40) %1, i32 %spec.select.i.i, ptr noundef nonnull %4) #23
  ret void
}